target datalayout = "e-m:e-p270:32:32-p271:32:32-p272:64:64-i64:64-i128:128-f80:128-n8:16:32:64-S128"
target triple = "x86_64-pc-linux-gnu"

%"class.boost::urls::detail::query_ref" = type <{ ptr, ptr, i64, i64, i64, i8, [7 x i8] }>
%"class.boost::urls::params_encoded_ref" = type { %"class.boost::urls::params_encoded_base", ptr }
%"class.boost::urls::params_encoded_base" = type { %"class.boost::urls::detail::query_ref" }
%"class.boost::urls::params_encoded_base::iterator" = type { %"struct.boost::urls::detail::params_iter_impl" }
%"struct.boost::urls::detail::params_iter_impl" = type { [8 x i8], %"class.boost::urls::detail::query_ref", i64, i64, i64, i64, i64, i64 }
%"class.boost::core::basic_string_view" = type { ptr, i64 }
%"struct.boost::urls::detail::param_encoded_iter" = type { %"struct.boost::urls::detail::any_params_iter.base", i8, i8, [5 x i8] }
%"struct.boost::urls::detail::any_params_iter.base" = type <{ ptr, %"class.boost::core::basic_string_view", %"class.boost::core::basic_string_view", i8 }>

; Function Attrs: mustprogress nounwind uwtable
define linkonce_odr hidden noundef nonnull align 8 dereferenceable(104) ptr @_ZN5boost4urls19params_encoded_base8iteratormmEv(ptr noundef nonnull align 8 dereferenceable(104) %0) #2 comdat align 2 {
  %2 = alloca ptr, align 8
  store ptr %0, ptr %2, align 8, !tbaa !3
  %3 = load ptr, ptr %2, align 8
  %4 = getelementptr inbounds nuw %"class.boost::urls::params_encoded_base::iterator", ptr %3, i32 0, i32 0
  call void @_ZN5boost4urls6detail16params_iter_impl9decrementEv(ptr noundef nonnull align 8 dereferenceable(104) %4) #11
  ret ptr %3
}

; Function Attrs: mustprogress nounwind uwtable
define linkonce_odr hidden noundef nonnull align 8 dereferenceable(104) ptr @_ZN5boost4urls19params_encoded_base8iteratorppEv(ptr noundef nonnull align 8 dereferenceable(104) %0) #2 comdat align 2 {
  %2 = alloca ptr, align 8
  store ptr %0, ptr %2, align 8, !tbaa !3
  %3 = load ptr, ptr %2, align 8
  %4 = getelementptr inbounds nuw %"class.boost::urls::params_encoded_base::iterator", ptr %3, i32 0, i32 0
  call void @_ZN5boost4urls6detail16params_iter_impl9incrementEv(ptr noundef nonnull align 8 dereferenceable(104) %4) #11
  ret ptr %3
}

; Function Attrs: inlinehint mustprogress nounwind uwtable
define linkonce_odr void @_ZSt9__advanceIN5boost4urls19params_encoded_base8iteratorElEvRT_T0_St26bidirectional_iterator_tag(ptr noundef nonnull align 8 dereferenceable(104) %0, i64 noundef %1) #7 comdat {
  %3 = alloca ptr, align 8
  %4 = alloca i64, align 8
  store ptr %0, ptr %3, align 8, !tbaa !3
  store i64 %1, ptr %4, align 8, !tbaa !19
  %5 = load i64, ptr %4, align 8, !tbaa !19
  %6 = icmp sgt i64 %5, 0
  br i1 %6, label %7, label %16

7:                                                ; preds = %2
  br label %8

8:                                                ; preds = %12, %7
  %9 = load i64, ptr %4, align 8, !tbaa !19
  %10 = add nsw i64 %9, -1
  store i64 %10, ptr %4, align 8, !tbaa !19
  %11 = icmp ne i64 %9, 0
  br i1 %11, label %12, label %15

12:                                               ; preds = %8
  %13 = load ptr, ptr %3, align 8, !tbaa !3
  %14 = call noundef nonnull align 8 dereferenceable(104) ptr @_ZN5boost4urls19params_encoded_base8iteratorppEv(ptr noundef nonnull align 8 dereferenceable(104) %13) #11
  br label %8, !llvm.loop !50

15:                                               ; preds = %8
  br label %25

16:                                               ; preds = %2
  br label %17

17:                                               ; preds = %21, %16
  %18 = load i64, ptr %4, align 8, !tbaa !19
  %19 = add nsw i64 %18, 1
  store i64 %19, ptr %4, align 8, !tbaa !19
  %20 = icmp ne i64 %18, 0
  br i1 %20, label %21, label %24

21:                                               ; preds = %17
  %22 = load ptr, ptr %3, align 8, !tbaa !3
  %23 = call noundef nonnull align 8 dereferenceable(104) ptr @_ZN5boost4urls19params_encoded_base8iteratormmEv(ptr noundef nonnull align 8 dereferenceable(104) %22) #11
  br label %17, !llvm.loop !51

24:                                               ; preds = %17
  br label %25

25:                                               ; preds = %24, %15
  ret void
}

; Function Attrs: inlinehint mustprogress nounwind uwtable
define linkonce_odr void @_ZSt19__iterator_categoryIN5boost4urls19params_encoded_base8iteratorEENSt15iterator_traitsIT_E17iterator_categoryERKS5_(ptr noundef nonnull align 8 dereferenceable(104) %0) #7 comdat {
  %2 = alloca ptr, align 8
  store ptr %0, ptr %2, align 8, !tbaa !3
  ret void
}

; Function Attrs: inlinehint mustprogress uwtable
define linkonce_odr void @_ZSt7advanceIN5boost4urls19params_encoded_base8iteratorElEvRT_T0_(ptr noundef nonnull align 8 dereferenceable(104) %0, i64 noundef %1) #8 comdat {
  %3 = alloca ptr, align 8
  %4 = alloca i64, align 8
  %5 = alloca i64, align 8
  store ptr %0, ptr %3, align 8, !tbaa !3
  store i64 %1, ptr %4, align 8, !tbaa !19
  call void @llvm.lifetime.start.p0(i64 8, ptr %5) #11
  %6 = load i64, ptr %4, align 8, !tbaa !19
  store i64 %6, ptr %5, align 8, !tbaa !19
  %7 = load ptr, ptr %3, align 8, !tbaa !3
  %8 = load i64, ptr %5, align 8, !tbaa !19
  %9 = load ptr, ptr %3, align 8, !tbaa !3
  call void @_ZSt19__iterator_categoryIN5boost4urls19params_encoded_base8iteratorEENSt15iterator_traitsIT_E17iterator_categoryERKS5_(ptr noundef nonnull align 8 dereferenceable(104) %9)
  call void @_ZSt9__advanceIN5boost4urls19params_encoded_base8iteratorElEvRT_T0_St26bidirectional_iterator_tag(ptr noundef nonnull align 8 dereferenceable(104) %7, i64 noundef %8)
  call void @llvm.lifetime.end.p0(i64 8, ptr %5) #11
  ret void
}

; Function Attrs: mustprogress nounwind uwtable
define linkonce_odr hidden void @_ZN5boost4urls19params_encoded_base8iteratorC2ERKNS0_6detail16params_iter_implE(ptr noundef nonnull align 8 dereferenceable(104) %0, ptr noundef nonnull align 8 dereferenceable(104) %1) unnamed_addr #2 comdat align 2 {
  %3 = alloca ptr, align 8
  %4 = alloca ptr, align 8
  store ptr %0, ptr %3, align 8, !tbaa !3
  store ptr %1, ptr %4, align 8, !tbaa !3
  %5 = load ptr, ptr %3, align 8
  %6 = getelementptr inbounds nuw %"class.boost::urls::params_encoded_base::iterator", ptr %5, i32 0, i32 0
  %7 = load ptr, ptr %4, align 8, !tbaa !3
  call void @llvm.memcpy.p0.p0.i64(ptr align 8 %6, ptr align 8 %7, i64 104, i1 false)
  ret void
}

; Function Attrs: inlinehint mustprogress uwtable
define linkonce_odr void @_ZSt4nextIN5boost4urls19params_encoded_base8iteratorEET_S4_NSt15iterator_traitsIS4_E15difference_typeE(ptr dead_on_unwind noalias writable sret(%"class.boost::urls::params_encoded_base::iterator") align 8 %0, ptr noundef byval(%"class.boost::urls::params_encoded_base::iterator") align 8 %1, i64 noundef %2) #8 comdat {
  %4 = alloca i64, align 8
  store i64 %2, ptr %4, align 8, !tbaa !19
  %5 = load i64, ptr %4, align 8, !tbaa !19
  call void @_ZSt7advanceIN5boost4urls19params_encoded_base8iteratorElEvRT_T0_(ptr noundef nonnull align 8 dereferenceable(104) %1, i64 noundef %5)
  call void @llvm.memcpy.p0.p0.i64(ptr align 8 %0, ptr align 8 %1, i64 104, i1 false)
  ret void
}

; Function Attrs: mustprogress uwtable
define void @_ZN5boost4urls18params_encoded_ref7replaceENS0_19params_encoded_base8iteratorERKNS0_14param_pct_viewE(ptr dead_on_unwind noalias writable sret(%"class.boost::urls::params_encoded_base::iterator") align 8 %0, ptr noundef nonnull align 8 dereferenceable(56) %1, ptr noundef byval(%"class.boost::urls::params_encoded_base::iterator") align 8 %2, ptr noundef nonnull align 8 dereferenceable(49) %3) #4 align 2 personality ptr @__gxx_personality_v0 {
  %5 = alloca ptr, align 8
  %6 = alloca ptr, align 8
  %7 = alloca %"struct.boost::urls::detail::params_iter_impl", align 8
  %8 = alloca %"class.boost::urls::params_encoded_base::iterator", align 8
  %9 = alloca %"class.boost::urls::params_encoded_base::iterator", align 8
  %10 = alloca %"struct.boost::urls::detail::param_encoded_iter", align 8
  %11 = alloca ptr, align 8
  %12 = alloca i32, align 4
  store ptr %1, ptr %5, align 8, !tbaa !3
  store ptr %3, ptr %6, align 8, !tbaa !3
  %13 = load ptr, ptr %5, align 8
  call void @llvm.lifetime.start.p0(i64 104, ptr %7) #11
  %14 = getelementptr inbounds nuw %"class.boost::urls::params_encoded_ref", ptr %13, i32 0, i32 1
  %15 = load ptr, ptr %14, align 8, !tbaa !7
  %16 = getelementptr inbounds nuw %"class.boost::urls::params_encoded_base::iterator", ptr %2, i32 0, i32 0
  call void @llvm.lifetime.start.p0(i64 104, ptr %8) #11
  call void @llvm.memcpy.p0.p0.i64(ptr align 8 %9, ptr align 8 %2, i64 104, i1 false)
  call void @_ZSt4nextIN5boost4urls19params_encoded_base8iteratorEET_S4_NSt15iterator_traitsIS4_E15difference_typeE(ptr dead_on_unwind writable sret(%"class.boost::urls::params_encoded_base::iterator") align 8 %8, ptr noundef byval(%"class.boost::urls::params_encoded_base::iterator") align 8 %9, i64 noundef 1)
  %17 = getelementptr inbounds nuw %"class.boost::urls::params_encoded_base::iterator", ptr %8, i32 0, i32 0
  call void @llvm.lifetime.start.p0(i64 48, ptr %10) #11
  %18 = load ptr, ptr %6, align 8, !tbaa !3
  call void @_ZN5boost4urls6detail18param_encoded_iterC1ERKNS0_14param_pct_viewE(ptr noundef nonnull align 8 dereferenceable(43) %10, ptr noundef nonnull align 8 dereferenceable(49) %18) #11
  invoke void @_ZN5boost4urls8url_base11edit_paramsERKNS0_6detail16params_iter_implES5_ONS2_15any_params_iterE(ptr dead_on_unwind writable sret(%"struct.boost::urls::detail::params_iter_impl") align 8 %7, ptr noundef nonnull align 8 dereferenceable(216) %15, ptr noundef nonnull align 8 dereferenceable(104) %16, ptr noundef nonnull align 8 dereferenceable(104) %17, ptr noundef nonnull align 8 dereferenceable(41) %10)
          to label %19 unwind label %21

19:                                               ; preds = %4
  invoke void @_ZN5boost4urls19params_encoded_base8iteratorC2ERKNS0_6detail16params_iter_implE(ptr noundef nonnull align 8 dereferenceable(104) %0, ptr noundef nonnull align 8 dereferenceable(104) %7)
          to label %20 unwind label %21

20:                                               ; preds = %19
  call void @_ZN5boost4urls6detail15any_params_iterD2Ev(ptr noundef nonnull align 8 dereferenceable(43) %10) #11
  call void @llvm.lifetime.end.p0(i64 48, ptr %10) #11
  call void @llvm.lifetime.end.p0(i64 104, ptr %8) #11
  call void @llvm.lifetime.end.p0(i64 104, ptr %7) #11
  ret void

21:                                               ; preds = %19, %4
  %22 = landingpad { ptr, i32 }
          cleanup
  %23 = extractvalue { ptr, i32 } %22, 0
  store ptr %23, ptr %11, align 8
  %24 = extractvalue { ptr, i32 } %22, 1
  store i32 %24, ptr %12, align 4
  call void @_ZN5boost4urls6detail15any_params_iterD2Ev(ptr noundef nonnull align 8 dereferenceable(43) %10) #11
  call void @llvm.lifetime.end.p0(i64 48, ptr %10) #11
  call void @llvm.lifetime.end.p0(i64 104, ptr %8) #11
  call void @llvm.lifetime.end.p0(i64 104, ptr %7) #11
  br label %25

25:                                               ; preds = %21
  %26 = load ptr, ptr %11, align 8
  %27 = load i32, ptr %12, align 4
  %28 = insertvalue { ptr, i32 } poison, ptr %26, 0
  %29 = insertvalue { ptr, i32 } %28, i32 %27, 1
  resume { ptr, i32 } %29
}