; Function Attrs: mustprogress uwtable
define void @_ZN5boost4urls18params_encoded_ref7replaceENS0_19params_encoded_base8iteratorERKNS0_14param_pct_viewE(ptr dead_on_unwind noalias nocapture writable writeonly sret(%"class.boost::urls::params_encoded_base::iterator") align 8 %0, ptr nocapture noundef nonnull readonly align 8 dereferenceable(56) %1, ptr noundef byval(%"class.boost::urls::params_encoded_base::iterator") align 8 %2, ptr noundef nonnull align 8 dereferenceable(49) %3) local_unnamed_addr #5 align 2 personality ptr @__gxx_personality_v0 {
.preheader.i.i.i:
  %4 = alloca %"class.boost::urls::params_encoded_base::iterator", align 8
  %5 = alloca %"struct.boost::urls::detail::params_iter_impl", align 8
  %6 = alloca %"class.boost::urls::params_encoded_base::iterator", align 8
  %7 = alloca %"struct.boost::urls::detail::param_encoded_iter", align 8
  call void @llvm.lifetime.start.p0(i64 104, ptr nonnull %5) #12
  %8 = getelementptr inbounds nuw i8, ptr %1, i64 48
  %9 = load ptr, ptr %8, align 8, !tbaa !3
  call void @llvm.lifetime.start.p0(i64 104, ptr nonnull %6) #12
  call void @llvm.lifetime.start.p0(i64 104, ptr nonnull %4)
  call void @llvm.memcpy.p0.p0.i64(ptr noundef nonnull align 8 dereferenceable(104) %4, ptr noundef nonnull align 8 dereferenceable(104) %2, i64 104, i1 false)
  call void @_ZN5boost4urls6detail16params_iter_impl9incrementEv(ptr noundef nonnull align 8 dereferenceable(104) %4) #12, !noalias !67
  call void @llvm.memcpy.p0.p0.i64(ptr noundef nonnull align 8 dereferenceable(104) %6, ptr noundef nonnull align 8 dereferenceable(104) %4, i64 104, i1 false)
  call void @llvm.lifetime.end.p0(i64 104, ptr nonnull %4)
  call void @llvm.lifetime.start.p0(i64 48, ptr nonnull %7) #12
  call void @_ZN5boost4urls6detail18param_encoded_iterC1ERKNS0_14param_pct_viewE(ptr noundef nonnull align 8 dereferenceable(43) %7, ptr noundef nonnull align 8 dereferenceable(49) %3) #12
  invoke void @_ZN5boost4urls8url_base11edit_paramsERKNS0_6detail16params_iter_implES5_ONS2_15any_params_iterE(ptr dead_on_unwind nonnull writable sret(%"struct.boost::urls::detail::params_iter_impl") align 8 %5, ptr noundef nonnull align 8 dereferenceable(216) %9, ptr noundef nonnull align 8 dereferenceable(104) %2, ptr noundef nonnull align 8 dereferenceable(104) %6, ptr noundef nonnull align 8 dereferenceable(41) %7)
          to label %10 unwind label %11

10:                                               ; preds = %.preheader.i.i.i
  call void @llvm.memcpy.p0.p0.i64(ptr noundef nonnull align 8 dereferenceable(104) %0, ptr noundef nonnull align 8 dereferenceable(104) %5, i64 104, i1 false)
  call void @_ZN5boost4urls6detail15any_params_iterD2Ev(ptr noundef nonnull align 8 dereferenceable(43) %7) #12
  call void @llvm.lifetime.end.p0(i64 48, ptr nonnull %7) #12
  call void @llvm.lifetime.end.p0(i64 104, ptr nonnull %6) #12
  call void @llvm.lifetime.end.p0(i64 104, ptr nonnull %5) #12
  ret void

11:                                               ; preds = %.preheader.i.i.i
  %12 = landingpad { ptr, i32 }
          cleanup
  call void @_ZN5boost4urls6detail15any_params_iterD2Ev(ptr noundef nonnull align 8 dereferenceable(43) %7) #12
  call void @llvm.lifetime.end.p0(i64 48, ptr nonnull %7) #12
  call void @llvm.lifetime.end.p0(i64 104, ptr nonnull %6) #12
  call void @llvm.lifetime.end.p0(i64 104, ptr nonnull %5) #12
  resume { ptr, i32 } %12
}